; Function Attrs: nounwind sspstrong uwtable
define internal void @vga_class_init(ptr noundef %klass, ptr readnone captures(none) %data) #0 {
entry:
  %call.i = tail call ptr @object_class_dynamic_cast_assert(ptr noundef %klass, ptr noundef nonnull @.str.7, ptr noundef nonnull @.str.8, i32 noundef 77, ptr noundef nonnull @__func__.DEVICE_CLASS) #4
  %call.i6 = tail call ptr @object_class_dynamic_cast_assert(ptr noundef %klass, ptr noundef nonnull @.str.4, ptr noundef nonnull @.str.9, i32 noundef 10, ptr noundef nonnull @__func__.PCI_DEVICE_CLASS) #4
  %realize = getelementptr inbounds nuw i8, ptr %call.i6, i64 176
  store ptr @pci_std_vga_realize, ptr %realize, align 8
  %romfile = getelementptr inbounds nuw i8, ptr %call.i6, i64 224
  store ptr @.str.15, ptr %romfile, align 8
  %class_id = getelementptr inbounds nuw i8, ptr %call.i6, i64 214
  store i16 768, ptr %class_id, align 2
  tail call void @device_class_set_props(ptr noundef %call.i, ptr noundef nonnull @vga_pci_properties) #4
  %hotpluggable = getelementptr inbounds nuw i8, ptr %call.i, i64 129
  store i8 0, ptr %hotpluggable, align 1
  %call2 = tail call ptr @object_class_property_add_bool(ptr noundef %klass, ptr noundef nonnull @.str.16, ptr noundef nonnull @vga_get_big_endian_fb, ptr noundef nonnull @vga_set_big_endian_fb) #4
  ret void
}